target datalayout = "e-m:e-p270:32:32-p271:32:32-p272:64:64-i64:64-i128:128-f80:128-n8:16:32:64-S128"
target triple = "x86_64-pc-linux-gnu"

%struct._zend_phpdbg_globals = type { [11 x %struct._zend_array], %struct._zend_array, %struct._zend_array, ptr, ptr, %struct.phpdbg_frame_t, i32, ptr, %struct.phpdbg_lexer_data, ptr, %struct.sigaction, i32, i64, %struct.phpdbg_btree, %struct.phpdbg_btree, %struct._zend_array, %struct._zend_array, %struct._zend_array, %struct._zend_array, ptr, ptr, i8, ptr, ptr, ptr, i64, ptr, %struct._zval_struct, i32, i32, i8, i8, ptr, ptr, ptr, %struct._zend_array, ptr, ptr, ptr, [3 x %struct.anon.8], ptr, %struct.anon.9, i64, [2 x ptr], [3 x ptr], ptr, i8, ptr, ptr, [500 x i8], i32, %struct.phpdbg_signal_safe_mem, ptr, i64, ptr, i64 }
%struct.phpdbg_frame_t = type { i32, ptr, ptr }
%struct.phpdbg_lexer_data = type { i32, ptr, ptr, ptr, ptr, i32 }
%struct.sigaction = type { %union.anon.2, %struct.__sigset_t, i32, ptr }
%union.anon.2 = type { ptr }
%struct.__sigset_t = type { [16 x i64] }
%struct.phpdbg_btree = type { i64, i64, i8, ptr }
%struct._zval_struct = type { %union._zend_value, %union.anon.4, %union.anon.7 }
%union._zend_value = type { i64 }
%union.anon.4 = type { i32 }
%union.anon.7 = type { i32 }
%struct._zend_array = type { %struct._zend_refcounted_h, %union.anon.0, i32, %union.anon.1, i32, i32, i32, i32, i64, ptr }
%struct._zend_refcounted_h = type { i32, %union.anon }
%union.anon = type { i32 }
%union.anon.0 = type { i32 }
%union.anon.1 = type { ptr }
%struct.anon.8 = type { i32 }
%struct.anon.9 = type { i8, i32, i32, ptr, i32 }
%struct.phpdbg_signal_safe_mem = type { ptr, i8, ptr, ptr }
%struct._phpdbg_breakop_t = type { i32, i8, i64, i8, ptr, i64 }

@phpdbg_globals = external global %struct._zend_phpdbg_globals, align 8
@.str.21 = private unnamed_addr constant [27 x i8] c"Breakpoint #%d added at %s\00", align 1
@.str.43 = private unnamed_addr constant [25 x i8] c"Breakpoint exists for %s\00", align 1

; Function Attrs: nounwind uwtable
define internal void @_phpdbg_break_mapping(i32 noundef %0, ptr noundef %1) #0 {
  %3 = alloca ptr, align 8
  %4 = alloca i64, align 8
  %5 = alloca ptr, align 8
  %6 = alloca %struct._zval_struct, align 8
  %7 = alloca ptr, align 8
  %8 = alloca i32, align 4
  %9 = alloca ptr, align 8
  store i32 %0, ptr %8, align 4
  store ptr %1, ptr %9, align 8
  %10 = load i32, ptr %8, align 4
  %11 = sext i32 %10 to i64
  %12 = load ptr, ptr %9, align 8
  store ptr getelementptr inbounds ([11 x %struct._zend_array], ptr @phpdbg_globals, i64 0, i64 10), ptr %3, align 8
  store i64 %11, ptr %4, align 8
  store ptr %12, ptr %5, align 8
  %13 = load ptr, ptr %5, align 8
  store ptr %13, ptr %6, align 8
  %14 = getelementptr inbounds %struct._zval_struct, ptr %6, i32 0, i32 1
  store i32 13, ptr %14, align 8
  %15 = load ptr, ptr %3, align 8
  %16 = load i64, ptr %4, align 8
  %17 = call ptr @zend_hash_index_update(ptr noundef %15, i64 noundef %16, ptr noundef %6) #11
  store ptr %17, ptr %7, align 8
  %18 = load ptr, ptr %7, align 8
  %19 = load ptr, ptr %18, align 8
  %20 = icmp ne ptr %19, null
  call void @llvm.assume(i1 %20)
  ret void
}

; Function Attrs: nounwind uwtable
define void @phpdbg_set_breakpoint_opcode(ptr noundef %0, i64 noundef %1) #0 {
  %3 = alloca ptr, align 8
  %4 = alloca i64, align 8
  %5 = alloca ptr, align 8
  %6 = alloca %struct._zval_struct, align 8
  %7 = alloca ptr, align 8
  %8 = alloca i32, align 4
  %9 = alloca ptr, align 8
  %10 = alloca i64, align 8
  %11 = alloca ptr, align 8
  %12 = alloca i64, align 8
  %13 = alloca ptr, align 8
  %14 = alloca ptr, align 8
  %15 = alloca i64, align 8
  %16 = alloca ptr, align 8
  %17 = alloca i64, align 8
  %18 = alloca %struct._phpdbg_breakop_t, align 8
  %19 = alloca i64, align 8
  store ptr %0, ptr %16, align 8
  store i64 %1, ptr %17, align 8
  %20 = load ptr, ptr %16, align 8
  %21 = load i64, ptr %17, align 8
  %22 = call i64 @zend_hash_func(ptr noundef %20, i64 noundef %21)
  store i64 %22, ptr %19, align 8
  %23 = load i64, ptr %19, align 8
  store ptr getelementptr inbounds ([11 x %struct._zend_array], ptr @phpdbg_globals, i64 0, i64 6), ptr %14, align 8
  store i64 %23, ptr %15, align 8
  %24 = load ptr, ptr %14, align 8
  %25 = load i64, ptr %15, align 8
  %26 = call ptr @zend_hash_index_find(ptr noundef %24, i64 noundef %25) #11
  %27 = icmp ne ptr %26, null
  br i1 %27, label %28, label %32

28:                                               ; preds = %2
  %29 = load i32, ptr getelementptr inbounds (%struct._zend_phpdbg_globals, ptr @phpdbg_globals, i32 0, i32 39, i64 1), align 4
  %30 = load ptr, ptr %16, align 8
  %31 = call i32 (i32, i32, ptr, ...) @phpdbg_print(i32 noundef 1, i32 noundef %29, ptr noundef @.str.43, ptr noundef %30)
  br label %312

32:                                               ; preds = %2
  br label %33

33:                                               ; preds = %32
  call void @llvm.memset.p0.i64(ptr align 8 %18, i8 0, i64 40, i1 false)
  %34 = load i32, ptr getelementptr inbounds (%struct._zend_phpdbg_globals, ptr @phpdbg_globals, i32 0, i32 28), align 8
  %35 = add nsw i32 %34, 1
  store i32 %35, ptr getelementptr inbounds (%struct._zend_phpdbg_globals, ptr @phpdbg_globals, i32 0, i32 28), align 8
  %36 = getelementptr inbounds %struct._phpdbg_breakop_t, ptr %18, i32 0, i32 0
  store i32 %34, ptr %36, align 8
  %37 = getelementptr inbounds %struct._phpdbg_breakop_t, ptr %18, i32 0, i32 1
  store i8 6, ptr %37, align 4
  %38 = getelementptr inbounds %struct._phpdbg_breakop_t, ptr %18, i32 0, i32 3
  store i8 0, ptr %38, align 8
  %39 = getelementptr inbounds %struct._phpdbg_breakop_t, ptr %18, i32 0, i32 2
  store i64 0, ptr %39, align 8
  br label %40

40:                                               ; preds = %33
  %41 = load i64, ptr %19, align 8
  %42 = getelementptr inbounds %struct._phpdbg_breakop_t, ptr %18, i32 0, i32 5
  store i64 %41, ptr %42, align 8
  %43 = load ptr, ptr %16, align 8
  %44 = load i64, ptr %17, align 8
  %45 = call noalias ptr @_estrndup(ptr noundef %43, i64 noundef %44)
  %46 = getelementptr inbounds %struct._phpdbg_breakop_t, ptr %18, i32 0, i32 4
  store ptr %45, ptr %46, align 8
  %47 = load i64, ptr %19, align 8
  store ptr getelementptr inbounds ([11 x %struct._zend_array], ptr @phpdbg_globals, i64 0, i64 6), ptr %9, align 8
  store i64 %47, ptr %10, align 8
  store ptr %18, ptr %11, align 8
  store i64 40, ptr %12, align 8
  %48 = load ptr, ptr %9, align 8
  %49 = getelementptr inbounds %struct._zend_refcounted_h, ptr %48, i32 0, i32 1
  %50 = load i32, ptr %49, align 4
  store i32 %50, ptr %8, align 4
  %51 = load i32, ptr %8, align 4
  %52 = and i32 %51, 1008
  %53 = and i32 %52, 128
  %54 = icmp ne i32 %53, 0
  br i1 %54, label %55, label %58

55:                                               ; preds = %40
  %56 = load i64, ptr %12, align 8
  %57 = call noalias ptr @__zend_malloc(i64 noundef %56) #12
  br label %287

58:                                               ; preds = %40
  %59 = load i64, ptr %12, align 8
  %60 = call i1 @llvm.is.constant.i64(i64 %59)
  br i1 %60, label %61, label %282

61:                                               ; preds = %58
  %62 = load i64, ptr %12, align 8
  %63 = icmp ule i64 %62, 8
  br i1 %63, label %64, label %66

64:                                               ; preds = %61
  %65 = call noalias ptr @_emalloc_8() #11
  br label %280

66:                                               ; preds = %61
  %67 = load i64, ptr %12, align 8
  %68 = icmp ule i64 %67, 16
  br i1 %68, label %69, label %71

69:                                               ; preds = %66
  %70 = call noalias ptr @_emalloc_16() #11
  br label %278

71:                                               ; preds = %66
  %72 = load i64, ptr %12, align 8
  %73 = icmp ule i64 %72, 24
  br i1 %73, label %74, label %76

74:                                               ; preds = %71
  %75 = call noalias ptr @_emalloc_24() #11
  br label %276

76:                                               ; preds = %71
  %77 = load i64, ptr %12, align 8
  %78 = icmp ule i64 %77, 32
  br i1 %78, label %79, label %81

79:                                               ; preds = %76
  %80 = call noalias ptr @_emalloc_32() #11
  br label %274

81:                                               ; preds = %76
  %82 = load i64, ptr %12, align 8
  %83 = icmp ule i64 %82, 40
  br i1 %83, label %84, label %86

84:                                               ; preds = %81
  %85 = call noalias ptr @_emalloc_40() #11
  br label %272

86:                                               ; preds = %81
  %87 = load i64, ptr %12, align 8
  %88 = icmp ule i64 %87, 48
  br i1 %88, label %89, label %91

89:                                               ; preds = %86
  %90 = call noalias ptr @_emalloc_48() #11
  br label %270

91:                                               ; preds = %86
  %92 = load i64, ptr %12, align 8
  %93 = icmp ule i64 %92, 56
  br i1 %93, label %94, label %96

94:                                               ; preds = %91
  %95 = call noalias ptr @_emalloc_56() #11
  br label %268

96:                                               ; preds = %91
  %97 = load i64, ptr %12, align 8
  %98 = icmp ule i64 %97, 64
  br i1 %98, label %99, label %101

99:                                               ; preds = %96
  %100 = call noalias ptr @_emalloc_64() #11
  br label %266

101:                                              ; preds = %96
  %102 = load i64, ptr %12, align 8
  %103 = icmp ule i64 %102, 80
  br i1 %103, label %104, label %106

104:                                              ; preds = %101
  %105 = call noalias ptr @_emalloc_80() #11
  br label %264

106:                                              ; preds = %101
  %107 = load i64, ptr %12, align 8
  %108 = icmp ule i64 %107, 96
  br i1 %108, label %109, label %111

109:                                              ; preds = %106
  %110 = call noalias ptr @_emalloc_96() #11
  br label %262

111:                                              ; preds = %106
  %112 = load i64, ptr %12, align 8
  %113 = icmp ule i64 %112, 112
  br i1 %113, label %114, label %116

114:                                              ; preds = %111
  %115 = call noalias ptr @_emalloc_112() #11
  br label %260

116:                                              ; preds = %111
  %117 = load i64, ptr %12, align 8
  %118 = icmp ule i64 %117, 128
  br i1 %118, label %119, label %121

119:                                              ; preds = %116
  %120 = call noalias ptr @_emalloc_128() #11
  br label %258

121:                                              ; preds = %116
  %122 = load i64, ptr %12, align 8
  %123 = icmp ule i64 %122, 160
  br i1 %123, label %124, label %126

124:                                              ; preds = %121
  %125 = call noalias ptr @_emalloc_160() #11
  br label %256

126:                                              ; preds = %121
  %127 = load i64, ptr %12, align 8
  %128 = icmp ule i64 %127, 192
  br i1 %128, label %129, label %131

129:                                              ; preds = %126
  %130 = call noalias ptr @_emalloc_192() #11
  br label %254

131:                                              ; preds = %126
  %132 = load i64, ptr %12, align 8
  %133 = icmp ule i64 %132, 224
  br i1 %133, label %134, label %136

134:                                              ; preds = %131
  %135 = call noalias ptr @_emalloc_224() #11
  br label %252

136:                                              ; preds = %131
  %137 = load i64, ptr %12, align 8
  %138 = icmp ule i64 %137, 256
  br i1 %138, label %139, label %141

139:                                              ; preds = %136
  %140 = call noalias ptr @_emalloc_256() #11
  br label %250

141:                                              ; preds = %136
  %142 = load i64, ptr %12, align 8
  %143 = icmp ule i64 %142, 320
  br i1 %143, label %144, label %146

144:                                              ; preds = %141
  %145 = call noalias ptr @_emalloc_320() #11
  br label %248

146:                                              ; preds = %141
  %147 = load i64, ptr %12, align 8
  %148 = icmp ule i64 %147, 384
  br i1 %148, label %149, label %151

149:                                              ; preds = %146
  %150 = call noalias ptr @_emalloc_384() #11
  br label %246

151:                                              ; preds = %146
  %152 = load i64, ptr %12, align 8
  %153 = icmp ule i64 %152, 448
  br i1 %153, label %154, label %156

154:                                              ; preds = %151
  %155 = call noalias ptr @_emalloc_448() #11
  br label %244

156:                                              ; preds = %151
  %157 = load i64, ptr %12, align 8
  %158 = icmp ule i64 %157, 512
  br i1 %158, label %159, label %161

159:                                              ; preds = %156
  %160 = call noalias ptr @_emalloc_512() #11
  br label %242

161:                                              ; preds = %156
  %162 = load i64, ptr %12, align 8
  %163 = icmp ule i64 %162, 640
  br i1 %163, label %164, label %166

164:                                              ; preds = %161
  %165 = call noalias ptr @_emalloc_640() #11
  br label %240

166:                                              ; preds = %161
  %167 = load i64, ptr %12, align 8
  %168 = icmp ule i64 %167, 768
  br i1 %168, label %169, label %171

169:                                              ; preds = %166
  %170 = call noalias ptr @_emalloc_768() #11
  br label %238

171:                                              ; preds = %166
  %172 = load i64, ptr %12, align 8
  %173 = icmp ule i64 %172, 896
  br i1 %173, label %174, label %176

174:                                              ; preds = %171
  %175 = call noalias ptr @_emalloc_896() #11
  br label %236

176:                                              ; preds = %171
  %177 = load i64, ptr %12, align 8
  %178 = icmp ule i64 %177, 1024
  br i1 %178, label %179, label %181

179:                                              ; preds = %176
  %180 = call noalias ptr @_emalloc_1024() #11
  br label %234

181:                                              ; preds = %176
  %182 = load i64, ptr %12, align 8
  %183 = icmp ule i64 %182, 1280
  br i1 %183, label %184, label %186

184:                                              ; preds = %181
  %185 = call noalias ptr @_emalloc_1280() #11
  br label %232

186:                                              ; preds = %181
  %187 = load i64, ptr %12, align 8
  %188 = icmp ule i64 %187, 1536
  br i1 %188, label %189, label %191

189:                                              ; preds = %186
  %190 = call noalias ptr @_emalloc_1536() #11
  br label %230

191:                                              ; preds = %186
  %192 = load i64, ptr %12, align 8
  %193 = icmp ule i64 %192, 1792
  br i1 %193, label %194, label %196

194:                                              ; preds = %191
  %195 = call noalias ptr @_emalloc_1792() #11
  br label %228

196:                                              ; preds = %191
  %197 = load i64, ptr %12, align 8
  %198 = icmp ule i64 %197, 2048
  br i1 %198, label %199, label %201

199:                                              ; preds = %196
  %200 = call noalias ptr @_emalloc_2048() #11
  br label %226

201:                                              ; preds = %196
  %202 = load i64, ptr %12, align 8
  %203 = icmp ule i64 %202, 2560
  br i1 %203, label %204, label %206

204:                                              ; preds = %201
  %205 = call noalias ptr @_emalloc_2560() #11
  br label %224

206:                                              ; preds = %201
  %207 = load i64, ptr %12, align 8
  %208 = icmp ule i64 %207, 3072
  br i1 %208, label %209, label %211

209:                                              ; preds = %206
  %210 = call noalias ptr @_emalloc_3072() #11
  br label %222

211:                                              ; preds = %206
  %212 = load i64, ptr %12, align 8
  %213 = icmp ule i64 %212, 2093056
  br i1 %213, label %214, label %217

214:                                              ; preds = %211
  %215 = load i64, ptr %12, align 8
  %216 = call noalias ptr @_emalloc_large(i64 noundef %215) #12
  br label %220

217:                                              ; preds = %211
  %218 = load i64, ptr %12, align 8
  %219 = call noalias ptr @_emalloc_huge(i64 noundef %218) #12
  br label %220

220:                                              ; preds = %217, %214
  %221 = phi ptr [ %216, %214 ], [ %219, %217 ]
  br label %222

222:                                              ; preds = %220, %209
  %223 = phi ptr [ %210, %209 ], [ %221, %220 ]
  br label %224

224:                                              ; preds = %222, %204
  %225 = phi ptr [ %205, %204 ], [ %223, %222 ]
  br label %226

226:                                              ; preds = %224, %199
  %227 = phi ptr [ %200, %199 ], [ %225, %224 ]
  br label %228

228:                                              ; preds = %226, %194
  %229 = phi ptr [ %195, %194 ], [ %227, %226 ]
  br label %230

230:                                              ; preds = %228, %189
  %231 = phi ptr [ %190, %189 ], [ %229, %228 ]
  br label %232

232:                                              ; preds = %230, %184
  %233 = phi ptr [ %185, %184 ], [ %231, %230 ]
  br label %234

234:                                              ; preds = %232, %179
  %235 = phi ptr [ %180, %179 ], [ %233, %232 ]
  br label %236

236:                                              ; preds = %234, %174
  %237 = phi ptr [ %175, %174 ], [ %235, %234 ]
  br label %238

238:                                              ; preds = %236, %169
  %239 = phi ptr [ %170, %169 ], [ %237, %236 ]
  br label %240

240:                                              ; preds = %238, %164
  %241 = phi ptr [ %165, %164 ], [ %239, %238 ]
  br label %242

242:                                              ; preds = %240, %159
  %243 = phi ptr [ %160, %159 ], [ %241, %240 ]
  br label %244

244:                                              ; preds = %242, %154
  %245 = phi ptr [ %155, %154 ], [ %243, %242 ]
  br label %246

246:                                              ; preds = %244, %149
  %247 = phi ptr [ %150, %149 ], [ %245, %244 ]
  br label %248

248:                                              ; preds = %246, %144
  %249 = phi ptr [ %145, %144 ], [ %247, %246 ]
  br label %250

250:                                              ; preds = %248, %139
  %251 = phi ptr [ %140, %139 ], [ %249, %248 ]
  br label %252

252:                                              ; preds = %250, %134
  %253 = phi ptr [ %135, %134 ], [ %251, %250 ]
  br label %254

254:                                              ; preds = %252, %129
  %255 = phi ptr [ %130, %129 ], [ %253, %252 ]
  br label %256

256:                                              ; preds = %254, %124
  %257 = phi ptr [ %125, %124 ], [ %255, %254 ]
  br label %258

258:                                              ; preds = %256, %119
  %259 = phi ptr [ %120, %119 ], [ %257, %256 ]
  br label %260

260:                                              ; preds = %258, %114
  %261 = phi ptr [ %115, %114 ], [ %259, %258 ]
  br label %262

262:                                              ; preds = %260, %109
  %263 = phi ptr [ %110, %109 ], [ %261, %260 ]
  br label %264

264:                                              ; preds = %262, %104
  %265 = phi ptr [ %105, %104 ], [ %263, %262 ]
  br label %266

266:                                              ; preds = %264, %99
  %267 = phi ptr [ %100, %99 ], [ %265, %264 ]
  br label %268

268:                                              ; preds = %266, %94
  %269 = phi ptr [ %95, %94 ], [ %267, %266 ]
  br label %270

270:                                              ; preds = %268, %89
  %271 = phi ptr [ %90, %89 ], [ %269, %268 ]
  br label %272

272:                                              ; preds = %270, %84
  %273 = phi ptr [ %85, %84 ], [ %271, %270 ]
  br label %274

274:                                              ; preds = %272, %79
  %275 = phi ptr [ %80, %79 ], [ %273, %272 ]
  br label %276

276:                                              ; preds = %274, %74
  %277 = phi ptr [ %75, %74 ], [ %275, %274 ]
  br label %278

278:                                              ; preds = %276, %69
  %279 = phi ptr [ %70, %69 ], [ %277, %276 ]
  br label %280

280:                                              ; preds = %278, %64
  %281 = phi ptr [ %65, %64 ], [ %279, %278 ]
  br label %285

282:                                              ; preds = %58
  %283 = load i64, ptr %12, align 8
  %284 = call noalias ptr @_emalloc(i64 noundef %283) #12
  br label %285

285:                                              ; preds = %282, %280
  %286 = phi ptr [ %281, %280 ], [ %284, %282 ]
  br label %287

287:                                              ; preds = %285, %55
  %288 = phi ptr [ %57, %55 ], [ %286, %285 ]
  store ptr %288, ptr %13, align 8
  %289 = load ptr, ptr %13, align 8
  %290 = load ptr, ptr %11, align 8
  %291 = load i64, ptr %12, align 8
  call void @llvm.memcpy.p0.p0.i64(ptr align 1 %289, ptr align 1 %290, i64 %291, i1 false)
  %292 = load ptr, ptr %9, align 8
  %293 = load i64, ptr %10, align 8
  %294 = load ptr, ptr %13, align 8
  store ptr %292, ptr %3, align 8
  store i64 %293, ptr %4, align 8
  store ptr %294, ptr %5, align 8
  %295 = load ptr, ptr %5, align 8
  store ptr %295, ptr %6, align 8
  %296 = getelementptr inbounds %struct._zval_struct, ptr %6, i32 0, i32 1
  store i32 13, ptr %296, align 8
  %297 = load ptr, ptr %3, align 8
  %298 = load i64, ptr %4, align 8
  %299 = call ptr @zend_hash_index_update(ptr noundef %297, i64 noundef %298, ptr noundef %6) #11
  store ptr %299, ptr %7, align 8
  %300 = load ptr, ptr %7, align 8
  %301 = load ptr, ptr %300, align 8
  %302 = icmp ne ptr %301, null
  call void @llvm.assume(i1 %302)
  %303 = load i64, ptr getelementptr inbounds (%struct._zend_phpdbg_globals, ptr @phpdbg_globals, i32 0, i32 53), align 8
  %304 = or i64 %303, 128
  store i64 %304, ptr getelementptr inbounds (%struct._zend_phpdbg_globals, ptr @phpdbg_globals, i32 0, i32 53), align 8
  %305 = load i32, ptr getelementptr inbounds (%struct._zend_phpdbg_globals, ptr @phpdbg_globals, i32 0, i32 39, i64 1), align 4
  %306 = getelementptr inbounds %struct._phpdbg_breakop_t, ptr %18, i32 0, i32 0
  %307 = load i32, ptr %306, align 8
  %308 = load ptr, ptr %16, align 8
  %309 = call i32 (i32, i32, ptr, ...) @phpdbg_print(i32 noundef 2, i32 noundef %305, ptr noundef @.str.21, i32 noundef %307, ptr noundef %308)
  %310 = getelementptr inbounds %struct._phpdbg_breakop_t, ptr %18, i32 0, i32 0
  %311 = load i32, ptr %310, align 8
  call void @_phpdbg_break_mapping(i32 noundef %311, ptr noundef getelementptr inbounds ([11 x %struct._zend_array], ptr @phpdbg_globals, i64 0, i64 6))
  br label %312

312:                                              ; preds = %287, %28
  ret void
}