; Function Attrs: nounwind uwtable
define void @phpdbg_set_breakpoint_opcode(ptr noundef %0, i64 noundef %1) local_unnamed_addr #1 {
  %3 = alloca %struct._zval_struct, align 8
  %4 = alloca %struct._zval_struct, align 8
  %5 = tail call i64 @zend_hash_func(ptr noundef %0, i64 noundef %1) #14
  %6 = tail call ptr @zend_hash_index_find(ptr noundef nonnull getelementptr inbounds (%struct._zend_phpdbg_globals, ptr @phpdbg_globals, i64 0, i32 0, i64 6), i64 noundef %5) #14
  %.not = icmp eq ptr %6, null
  br i1 %.not, label %10, label %7

7:                                                ; preds = %2
  %8 = load i32, ptr getelementptr inbounds (%struct._zend_phpdbg_globals, ptr @phpdbg_globals, i64 0, i32 39, i64 1), align 4
  %9 = tail call i32 (i32, i32, ptr, ...) @phpdbg_print(i32 noundef 1, i32 noundef %8, ptr noundef nonnull @.str.43, ptr noundef %0) #14
  br label %35

10:                                               ; preds = %2
  %11 = load i32, ptr getelementptr inbounds (%struct._zend_phpdbg_globals, ptr @phpdbg_globals, i64 0, i32 28), align 8
  %12 = add nsw i32 %11, 1
  store i32 %12, ptr getelementptr inbounds (%struct._zend_phpdbg_globals, ptr @phpdbg_globals, i64 0, i32 28), align 8
  %13 = tail call noalias ptr @_estrndup(ptr noundef %0, i64 noundef %1) #14
  %14 = load i32, ptr getelementptr inbounds (%struct._zend_phpdbg_globals, ptr @phpdbg_globals, i64 0, i32 0, i64 6, i32 0, i32 1), align 4
  %15 = and i32 %14, 128
  %.not63 = icmp eq i32 %15, 0
  br i1 %.not63, label %18, label %16

16:                                               ; preds = %10
  %17 = tail call noalias dereferenceable_or_null(40) ptr @__zend_malloc(i64 noundef 40) #16
  br label %20

18:                                               ; preds = %10
  %19 = tail call noalias ptr @_emalloc_40() #14
  br label %20

20:                                               ; preds = %18, %16
  %21 = phi ptr [ %17, %16 ], [ %19, %18 ]
  store i32 %11, ptr %21, align 1
  %.sroa.5.0..sroa_idx = getelementptr inbounds i8, ptr %21, i64 4
  store i8 6, ptr %.sroa.5.0..sroa_idx, align 1
  %.sroa.6.0..sroa_idx = getelementptr inbounds i8, ptr %21, i64 5
  %.sroa.860.0..sroa_idx = getelementptr inbounds i8, ptr %21, i64 24
  tail call void @llvm.memset.p0.i64(ptr noundef nonnull align 1 dereferenceable(19) %.sroa.6.0..sroa_idx, i8 0, i64 19, i1 false)
  store ptr %13, ptr %.sroa.860.0..sroa_idx, align 1
  %.sroa.9.0..sroa_idx = getelementptr inbounds i8, ptr %21, i64 32
  store i64 %5, ptr %.sroa.9.0..sroa_idx, align 1
  store ptr %21, ptr %4, align 8
  %22 = getelementptr inbounds i8, ptr %4, i64 8
  store i32 13, ptr %22, align 8
  %23 = call ptr @zend_hash_index_update(ptr noundef nonnull getelementptr inbounds (%struct._zend_phpdbg_globals, ptr @phpdbg_globals, i64 0, i32 0, i64 6), i64 noundef %5, ptr noundef nonnull %4) #14
  %24 = load ptr, ptr %23, align 8
  %25 = icmp ne ptr %24, null
  call void @llvm.assume(i1 %25)
  %26 = load i64, ptr getelementptr inbounds (%struct._zend_phpdbg_globals, ptr @phpdbg_globals, i64 0, i32 53), align 8
  %27 = or i64 %26, 128
  store i64 %27, ptr getelementptr inbounds (%struct._zend_phpdbg_globals, ptr @phpdbg_globals, i64 0, i32 53), align 8
  %28 = load i32, ptr getelementptr inbounds (%struct._zend_phpdbg_globals, ptr @phpdbg_globals, i64 0, i32 39, i64 1), align 4
  %29 = call i32 (i32, i32, ptr, ...) @phpdbg_print(i32 noundef 2, i32 noundef %28, ptr noundef nonnull @.str.21, i32 noundef %11, ptr noundef %0) #14
  call void @llvm.lifetime.start.p0(i64 16, ptr nonnull %3)
  %30 = sext i32 %11 to i64
  store ptr getelementptr inbounds (%struct._zend_phpdbg_globals, ptr @phpdbg_globals, i64 0, i32 0, i64 6), ptr %3, align 8
  %31 = getelementptr inbounds i8, ptr %3, i64 8
  store i32 13, ptr %31, align 8
  %32 = call ptr @zend_hash_index_update(ptr noundef nonnull getelementptr inbounds (%struct._zend_phpdbg_globals, ptr @phpdbg_globals, i64 0, i32 0, i64 10), i64 noundef %30, ptr noundef nonnull %3) #14
  %33 = load ptr, ptr %32, align 8
  %34 = icmp ne ptr %33, null
  call void @llvm.assume(i1 %34)
  call void @llvm.lifetime.end.p0(i64 16, ptr nonnull %3)
  br label %35

35:                                               ; preds = %20, %7
  ret void
}